target datalayout = "e-m:e-p270:32:32-p271:32:32-p272:64:64-i64:64-i128:128-f80:128-n8:16:32:64-S128"
target triple = "x86_64-pc-linux-gnu"

%struct.RBasic = type { i64, i64 }
%union.anon.22 = type { double }
%struct.RFloat = type { %struct.RBasic, double }

@rb_eTypeError = external global i64, align 8
@.str.20 = private unnamed_addr constant [6 x i8] c"Float\00", align 1
@.str.21 = private unnamed_addr constant [44 x i8] c"no implicit conversion to float from string\00", align 1
@.str.161 = private unnamed_addr constant [41 x i8] c"no implicit conversion to float from nil\00", align 1
@.str.162 = private unnamed_addr constant [42 x i8] c"no implicit conversion to float from true\00", align 1
@.str.163 = private unnamed_addr constant [43 x i8] c"no implicit conversion to float from false\00", align 1

; Function Attrs: inlinehint nounwind sspstrong uwtable
define internal i64 @RUBY_BIT_ROTR(i64 noundef %0, i32 noundef %1) #2 {
  %3 = alloca i64, align 8
  %4 = alloca i32, align 4
  store i64 %0, ptr %3, align 8, !tbaa !11
  store i32 %1, ptr %4, align 4, !tbaa !7
  %5 = load i64, ptr %3, align 8, !tbaa !11
  %6 = load i32, ptr %4, align 4, !tbaa !7
  %7 = sext i32 %6 to i64
  %8 = call i64 @llvm.fshr.i64(i64 %5, i64 %5, i64 %7)
  ret i64 %8
}

; Function Attrs: inlinehint nounwind sspstrong willreturn memory(none) uwtable
define internal i64 @rbimpl_fix2long_by_idiv(i64 noundef %0) #1 {
  %2 = alloca i64, align 8
  %3 = alloca i64, align 8
  %4 = alloca i64, align 8
  %5 = alloca i64, align 8
  store i64 %0, ptr %2, align 8, !tbaa !11
  call void @llvm.lifetime.start.p0(i64 8, ptr %3) #28
  %6 = load i64, ptr %2, align 8, !tbaa !11
  %7 = sub i64 %6, 1
  store i64 %7, ptr %3, align 8, !tbaa !11
  call void @llvm.lifetime.start.p0(i64 8, ptr %4) #28
  %8 = load i64, ptr %3, align 8, !tbaa !11
  %9 = sdiv i64 %8, 2
  store i64 %9, ptr %4, align 8, !tbaa !11
  call void @llvm.lifetime.start.p0(i64 8, ptr %5) #28
  %10 = load i64, ptr %4, align 8, !tbaa !11
  store i64 %10, ptr %5, align 8, !tbaa !11
  %11 = load i64, ptr %5, align 8, !tbaa !11
  call void @llvm.lifetime.end.p0(i64 8, ptr %5) #28
  call void @llvm.lifetime.end.p0(i64 8, ptr %4) #28
  call void @llvm.lifetime.end.p0(i64 8, ptr %3) #28
  ret i64 %11
}

; Function Attrs: inlinehint nounwind sspstrong willreturn memory(none) uwtable
define internal i64 @rbimpl_fix2long_by_shift(i64 noundef %0) #1 {
  %2 = alloca i64, align 8
  %3 = alloca i64, align 8
  %4 = alloca i64, align 8
  %5 = alloca i64, align 8
  store i64 %0, ptr %2, align 8, !tbaa !11
  call void @llvm.lifetime.start.p0(i64 8, ptr %3) #28
  %6 = load i64, ptr %2, align 8, !tbaa !11
  store i64 %6, ptr %3, align 8, !tbaa !11
  call void @llvm.lifetime.start.p0(i64 8, ptr %4) #28
  %7 = load i64, ptr %3, align 8, !tbaa !11
  %8 = ashr i64 %7, 1
  store i64 %8, ptr %4, align 8, !tbaa !11
  call void @llvm.lifetime.start.p0(i64 8, ptr %5) #28
  %9 = load i64, ptr %4, align 8, !tbaa !11
  store i64 %9, ptr %5, align 8, !tbaa !11
  %10 = load i64, ptr %5, align 8, !tbaa !11
  call void @llvm.lifetime.end.p0(i64 8, ptr %5) #28
  call void @llvm.lifetime.end.p0(i64 8, ptr %4) #28
  call void @llvm.lifetime.end.p0(i64 8, ptr %3) #28
  ret i64 %10
}

; Function Attrs: inlinehint nounwind sspstrong willreturn memory(none) uwtable
define internal zeroext i1 @rbimpl_right_shift_is_arithmetic_p() #1 {
  ret i1 true
}

; Function Attrs: inlinehint nounwind sspstrong willreturn memory(none) uwtable
define internal zeroext i1 @RB_IMMEDIATE_P(i64 noundef %0) #1 {
  %2 = alloca i64, align 8
  store i64 %0, ptr %2, align 8, !tbaa !11
  %3 = load i64, ptr %2, align 8, !tbaa !11
  %4 = and i64 %3, 7
  %5 = icmp ne i64 %4, 0
  ret i1 %5
}

; Function Attrs: inlinehint nounwind sspstrong uwtable
define internal double @rb_float_value_inline(i64 noundef %0) #2 {
  %2 = alloca double, align 8
  %3 = alloca i64, align 8
  store i64 %0, ptr %3, align 8, !tbaa !11
  %4 = load i64, ptr %3, align 8, !tbaa !11
  %5 = call zeroext i1 @RB_FLONUM_P(i64 noundef %4) #27
  br i1 %5, label %6, label %9

6:                                                ; preds = %1
  %7 = load i64, ptr %3, align 8, !tbaa !11
  %8 = call double @rb_float_flonum_value(i64 noundef %7)
  store double %8, ptr %2, align 8
  br label %12

9:                                                ; preds = %1
  %10 = load i64, ptr %3, align 8, !tbaa !11
  %11 = call double @rb_float_noflonum_value(i64 noundef %10)
  store double %11, ptr %2, align 8
  br label %12

12:                                               ; preds = %9, %6
  %13 = load double, ptr %2, align 8
  ret double %13
}

; Function Attrs: inlinehint nounwind sspstrong uwtable
define internal double @rb_float_noflonum_value(i64 noundef %0) #2 {
  %2 = alloca i64, align 8
  store i64 %0, ptr %2, align 8, !tbaa !11
  %3 = load i64, ptr %2, align 8, !tbaa !11
  %4 = inttoptr i64 %3 to ptr
  %5 = getelementptr inbounds nuw %struct.RFloat, ptr %4, i32 0, i32 1
  %6 = load double, ptr %5, align 8, !tbaa !95
  ret double %6
}

; Function Attrs: inlinehint nounwind sspstrong willreturn memory(read) uwtable
define internal i32 @RB_BUILTIN_TYPE(i64 noundef %0) #7 {
  %2 = alloca i64, align 8
  %3 = alloca i64, align 8
  store i64 %0, ptr %2, align 8, !tbaa !11
  call void @llvm.lifetime.start.p0(i64 8, ptr %3) #28
  %4 = load i64, ptr %2, align 8, !tbaa !11
  %5 = inttoptr i64 %4 to ptr
  %6 = getelementptr inbounds nuw %struct.RBasic, ptr %5, i32 0, i32 0
  %7 = load i64, ptr %6, align 8, !tbaa !28
  %8 = and i64 %7, 31
  store i64 %8, ptr %3, align 8, !tbaa !11
  %9 = load i64, ptr %3, align 8, !tbaa !11
  %10 = trunc i64 %9 to i32
  call void @llvm.lifetime.end.p0(i64 8, ptr %3) #28
  ret i32 %10
}

; Function Attrs: inlinehint nounwind sspstrong uwtable
define internal void @implicit_conversion_to_float(i64 noundef %0) #2 {
  %2 = alloca i64, align 8
  store i64 %0, ptr %2, align 8, !tbaa !11
  %3 = load i64, ptr %2, align 8, !tbaa !11
  switch i64 %3, label %13 [
    i64 4, label %4
    i64 20, label %7
    i64 0, label %10
  ]

4:                                                ; preds = %1
  %5 = load i64, ptr @rb_eTypeError, align 8, !tbaa !11
  %6 = call i64 @rb_str_new_static(ptr noundef @.str.161, i64 noundef 40)
  call void @rb_raise_cstr_i(i64 noundef %5, i64 noundef %6) #31
  unreachable

7:                                                ; preds = %1
  %8 = load i64, ptr @rb_eTypeError, align 8, !tbaa !11
  %9 = call i64 @rb_str_new_static(ptr noundef @.str.162, i64 noundef 41)
  call void @rb_raise_cstr_i(i64 noundef %8, i64 noundef %9) #31
  unreachable

10:                                               ; preds = %1
  %11 = load i64, ptr @rb_eTypeError, align 8, !tbaa !11
  %12 = call i64 @rb_str_new_static(ptr noundef @.str.163, i64 noundef 42)
  call void @rb_raise_cstr_i(i64 noundef %11, i64 noundef %12) #31
  unreachable

13:                                               ; preds = %1
  ret void
}

; Function Attrs: inlinehint nounwind sspstrong uwtable
define internal double @rb_float_flonum_value(i64 noundef %0) #2 {
  %2 = alloca double, align 8
  %3 = alloca i64, align 8
  %4 = alloca %union.anon.22, align 8
  %5 = alloca i64, align 8
  store i64 %0, ptr %3, align 8, !tbaa !11
  %6 = load i64, ptr %3, align 8, !tbaa !11
  %7 = icmp ne i64 %6, -9223372036854775806
  br i1 %7, label %8, label %18

8:                                                ; preds = %1
  call void @llvm.lifetime.start.p0(i64 8, ptr %4) #28
  call void @llvm.lifetime.start.p0(i64 8, ptr %5) #28
  %9 = load i64, ptr %3, align 8, !tbaa !11
  %10 = lshr i64 %9, 63
  store i64 %10, ptr %5, align 8, !tbaa !11
  %11 = load i64, ptr %5, align 8, !tbaa !11
  %12 = sub i64 2, %11
  %13 = load i64, ptr %3, align 8, !tbaa !11
  %14 = and i64 %13, -4
  %15 = or i64 %12, %14
  %16 = call i64 @RUBY_BIT_ROTR(i64 noundef %15, i32 noundef 3)
  store i64 %16, ptr %4, align 8, !tbaa !42
  %17 = load double, ptr %4, align 8, !tbaa !42
  store double %17, ptr %2, align 8
  call void @llvm.lifetime.end.p0(i64 8, ptr %5) #28
  call void @llvm.lifetime.end.p0(i64 8, ptr %4) #28
  br label %19

18:                                               ; preds = %1
  store double 0.000000e+00, ptr %2, align 8
  br label %19

19:                                               ; preds = %18, %8
  %20 = load double, ptr %2, align 8
  ret double %20
}

; Function Attrs: inlinehint nounwind sspstrong willreturn memory(none) uwtable
define internal zeroext i1 @RB_FLONUM_P(i64 noundef %0) #1 {
  %2 = alloca i64, align 8
  store i64 %0, ptr %2, align 8, !tbaa !11
  %3 = load i64, ptr %2, align 8, !tbaa !11
  %4 = and i64 %3, 3
  %5 = icmp eq i64 %4, 2
  ret i1 %5
}

; Function Attrs: inlinehint nounwind sspstrong willreturn memory(none) uwtable
define internal i64 @rb_fix2long(i64 noundef %0) #1 {
  %2 = alloca i64, align 8
  %3 = alloca i64, align 8
  store i64 %0, ptr %3, align 8, !tbaa !11
  %4 = call zeroext i1 @rbimpl_right_shift_is_arithmetic_p() #27
  br i1 %4, label %5, label %8

5:                                                ; preds = %1
  %6 = load i64, ptr %3, align 8, !tbaa !11
  %7 = call i64 @rbimpl_fix2long_by_shift(i64 noundef %6) #27
  store i64 %7, ptr %2, align 8
  br label %11

8:                                                ; preds = %1
  %9 = load i64, ptr %3, align 8, !tbaa !11
  %10 = call i64 @rbimpl_fix2long_by_idiv(i64 noundef %9) #27
  store i64 %10, ptr %2, align 8
  br label %11

11:                                               ; preds = %8, %5
  %12 = load i64, ptr %2, align 8
  ret i64 %12
}

; Function Attrs: inlinehint nounwind sspstrong willreturn memory(none) uwtable
define internal zeroext i1 @RB_FIXNUM_P(i64 noundef %0) #1 {
  %2 = alloca i64, align 8
  store i64 %0, ptr %2, align 8, !tbaa !11
  %3 = load i64, ptr %2, align 8, !tbaa !11
  %4 = and i64 %3, 1
  %5 = icmp ne i64 %4, 0
  ret i1 %5
}

; Function Attrs: inlinehint nounwind sspstrong willreturn memory(none) uwtable
define internal zeroext i1 @RB_SPECIAL_CONST_P(i64 noundef %0) #1 {
  %2 = alloca i64, align 8
  store i64 %0, ptr %2, align 8, !tbaa !11
  %3 = load i64, ptr %2, align 8, !tbaa !11
  %4 = icmp eq i64 %3, 0
  br i1 %4, label %8, label %5

5:                                                ; preds = %1
  %6 = load i64, ptr %2, align 8, !tbaa !11
  %7 = call zeroext i1 @RB_IMMEDIATE_P(i64 noundef %6) #27
  br label %8

8:                                                ; preds = %5, %1
  %9 = phi i1 [ true, %1 ], [ %7, %5 ]
  ret i1 %9
}

; Function Attrs: nounwind sspstrong uwtable
define dso_local double @rb_num2dbl(i64 noundef %0) #0 {
  %2 = alloca double, align 8
  %3 = alloca i64, align 8
  store i64 %0, ptr %3, align 8, !tbaa !11
  %4 = load i64, ptr %3, align 8, !tbaa !11
  %5 = call zeroext i1 @RB_SPECIAL_CONST_P(i64 noundef %4) #27
  br i1 %5, label %6, label %23

6:                                                ; preds = %1
  %7 = load i64, ptr %3, align 8, !tbaa !11
  %8 = call zeroext i1 @RB_FIXNUM_P(i64 noundef %7) #27
  br i1 %8, label %9, label %13

9:                                                ; preds = %6
  %10 = load i64, ptr %3, align 8, !tbaa !11
  %11 = call i64 @rb_fix2long(i64 noundef %10) #27
  %12 = sitofp i64 %11 to double
  store double %12, ptr %2, align 8
  br label %44

13:                                               ; preds = %6
  %14 = load i64, ptr %3, align 8, !tbaa !11
  %15 = call zeroext i1 @RB_FLONUM_P(i64 noundef %14) #27
  br i1 %15, label %16, label %19

16:                                               ; preds = %13
  %17 = load i64, ptr %3, align 8, !tbaa !11
  %18 = call double @rb_float_flonum_value(i64 noundef %17)
  store double %18, ptr %2, align 8
  br label %44

19:                                               ; preds = %13
  %20 = load i64, ptr %3, align 8, !tbaa !11
  call void @implicit_conversion_to_float(i64 noundef %20)
  br label %21

21:                                               ; preds = %19
  br label %22

22:                                               ; preds = %21
  br label %39

23:                                               ; preds = %1
  %24 = load i64, ptr %3, align 8, !tbaa !11
  %25 = call i32 @RB_BUILTIN_TYPE(i64 noundef %24) #29
  switch i32 %25, label %37 [
    i32 4, label %26
    i32 10, label %29
    i32 15, label %32
    i32 5, label %35
  ]

26:                                               ; preds = %23
  %27 = load i64, ptr %3, align 8, !tbaa !11
  %28 = call double @rb_float_noflonum_value(i64 noundef %27)
  store double %28, ptr %2, align 8
  br label %44

29:                                               ; preds = %23
  %30 = load i64, ptr %3, align 8, !tbaa !11
  %31 = call double @rb_big2dbl(i64 noundef %30)
  store double %31, ptr %2, align 8
  br label %44

32:                                               ; preds = %23
  %33 = load i64, ptr %3, align 8, !tbaa !11
  %34 = call double @rat2dbl_without_to_f(i64 noundef %33)
  store double %34, ptr %2, align 8
  br label %44

35:                                               ; preds = %23
  %36 = load i64, ptr @rb_eTypeError, align 8, !tbaa !11
  call void (i64, ptr, ...) @rb_raise(i64 noundef %36, ptr noundef @.str.21) #31
  unreachable

37:                                               ; preds = %23
  br label %38

38:                                               ; preds = %37
  br label %39

39:                                               ; preds = %38, %22
  %40 = load i64, ptr %3, align 8, !tbaa !11
  %41 = call i64 @rb_convert_type_with_id(i64 noundef %40, i32 noundef 4, ptr noundef @.str.20, i64 noundef 3393)
  store i64 %41, ptr %3, align 8, !tbaa !11
  %42 = load i64, ptr %3, align 8, !tbaa !11
  %43 = call double @rb_float_value_inline(i64 noundef %42)
  store double %43, ptr %2, align 8
  br label %44

44:                                               ; preds = %39, %32, %29, %26, %16, %9
  %45 = load double, ptr %2, align 8
  ret double %45
}