; Function Attrs: nounwind sspstrong uwtable
define dso_local double @rb_num2dbl(i64 noundef %0) local_unnamed_addr #2 {
  %2 = icmp eq i64 %0, 0
  %3 = and i64 %0, 7
  %4 = icmp ne i64 %3, 0
  %5 = or i1 %2, %4
  br i1 %5, label %6, label %30

6:                                                ; preds = %1
  %7 = and i64 %0, 1
  %.not = icmp eq i64 %7, 0
  br i1 %.not, label %11, label %8

8:                                                ; preds = %6
  %9 = ashr i64 %0, 1
  %10 = sitofp i64 %9 to double
  br label %rb_float_flonum_value.exit

11:                                               ; preds = %6
  %12 = and i64 %0, 2
  %.not13 = icmp eq i64 %12, 0
  br i1 %.not13, label %20, label %13

13:                                               ; preds = %11
  %.not.i = icmp eq i64 %0, -9223372036854775806
  br i1 %.not.i, label %rb_float_flonum_value.exit, label %14

14:                                               ; preds = %13
  %.neg.i = ashr i64 %0, 63
  %15 = add nsw i64 %.neg.i, 2
  %16 = and i64 %0, -4
  %17 = or i64 %15, %16
  %18 = tail call noundef i64 @llvm.fshl.i64(i64 range(i64 1, 0) %17, i64 range(i64 1, 0) %17, i64 61)
  %19 = bitcast i64 %18 to double
  br label %rb_float_flonum_value.exit

20:                                               ; preds = %11
  switch i64 %0, label %implicit_conversion_to_float.exit [
    i64 4, label %21
    i64 20, label %24
    i64 0, label %27
  ]

21:                                               ; preds = %20
  %22 = load i64, ptr @rb_eTypeError, align 8, !tbaa !7
  %23 = tail call i64 @rb_str_new_static(ptr noundef nonnull @.str.161, i64 noundef 40) #23
  tail call fastcc void @rb_raise_cstr_i(i64 noundef %22, i64 noundef %23) #27
  unreachable

24:                                               ; preds = %20
  %25 = load i64, ptr @rb_eTypeError, align 8, !tbaa !7
  %26 = tail call i64 @rb_str_new_static(ptr noundef nonnull @.str.162, i64 noundef 41) #23
  tail call fastcc void @rb_raise_cstr_i(i64 noundef %25, i64 noundef %26) #27
  unreachable

27:                                               ; preds = %20
  %28 = load i64, ptr @rb_eTypeError, align 8, !tbaa !7
  %29 = tail call i64 @rb_str_new_static(ptr noundef nonnull @.str.163, i64 noundef 42) #23
  tail call fastcc void @rb_raise_cstr_i(i64 noundef %28, i64 noundef %29) #27
  unreachable

30:                                               ; preds = %1
  %31 = inttoptr i64 %0 to ptr
  %32 = load i64, ptr %31, align 8, !tbaa !24
  %33 = trunc i64 %32 to i32
  %34 = and i32 %33, 31
  switch i32 %34, label %implicit_conversion_to_float.exit [
    i32 4, label %35
    i32 10, label %38
    i32 15, label %40
    i32 5, label %42
  ]

35:                                               ; preds = %30
  %36 = getelementptr inbounds nuw i8, ptr %31, i64 16
  %37 = load double, ptr %36, align 8, !tbaa !75
  br label %rb_float_flonum_value.exit

38:                                               ; preds = %30
  %39 = tail call double @rb_big2dbl(i64 noundef %0) #23
  br label %rb_float_flonum_value.exit

40:                                               ; preds = %30
  %41 = tail call fastcc double @rat2dbl_without_to_f(i64 noundef %0)
  br label %rb_float_flonum_value.exit

42:                                               ; preds = %30
  %43 = load i64, ptr @rb_eTypeError, align 8, !tbaa !7
  tail call void (i64, ptr, ...) @rb_raise(i64 noundef %43, ptr noundef nonnull @.str.21) #24
  unreachable

implicit_conversion_to_float.exit:                ; preds = %20, %30
  %44 = tail call i64 @rb_convert_type_with_id(i64 noundef %0, i32 noundef 4, ptr noundef nonnull @.str.20, i64 noundef 3393)
  %45 = and i64 %44, 3
  %46 = icmp eq i64 %45, 2
  br i1 %46, label %47, label %54

47:                                               ; preds = %implicit_conversion_to_float.exit
  %.not.i.i = icmp eq i64 %44, -9223372036854775806
  br i1 %.not.i.i, label %rb_float_flonum_value.exit, label %48

48:                                               ; preds = %47
  %.neg.i.i = ashr i64 %44, 63
  %49 = add nsw i64 %.neg.i.i, 2
  %50 = and i64 %44, -4
  %51 = or i64 %49, %50
  %52 = tail call noundef i64 @llvm.fshl.i64(i64 range(i64 1, 0) %51, i64 range(i64 1, 0) %51, i64 61)
  %53 = bitcast i64 %52 to double
  br label %rb_float_flonum_value.exit

54:                                               ; preds = %implicit_conversion_to_float.exit
  %55 = inttoptr i64 %44 to ptr
  %56 = getelementptr inbounds nuw i8, ptr %55, i64 16
  %57 = load double, ptr %56, align 8, !tbaa !75
  br label %rb_float_flonum_value.exit

rb_float_flonum_value.exit:                       ; preds = %54, %48, %47, %14, %13, %40, %38, %35, %8
  %.0 = phi double [ %10, %8 ], [ %41, %40 ], [ %39, %38 ], [ %37, %35 ], [ %19, %14 ], [ 0.000000e+00, %13 ], [ %57, %54 ], [ %53, %48 ], [ 0.000000e+00, %47 ]
  ret double %.0
}